target datalayout = "e-m:e-p270:32:32-p271:32:32-p272:64:64-i64:64-i128:128-f80:128-n8:16:32:64-S128"
target triple = "x86_64-pc-linux-gnu"

%"class.__gnu_cxx::__normal_iterator.350" = type { ptr }
%"class.std::unique_ptr.351" = type { %"struct.std::__uniq_ptr_data.352" }
%"struct.std::__uniq_ptr_data.352" = type { %"class.std::__uniq_ptr_impl.353" }
%"class.std::__uniq_ptr_impl.353" = type { %"class.std::tuple.354" }
%"class.std::tuple.354" = type { %"struct.std::_Tuple_impl.355" }
%"struct.std::_Tuple_impl.355" = type { %"struct.std::_Head_base.358" }
%"struct.std::_Head_base.358" = type { ptr }
%"struct.__gnu_cxx::__ops::_Iter_comp_iter" = type { i8 }

; Function Attrs: mustprogress nounwind uwtable
define internal void @_ZN9__gnu_cxx17__normal_iteratorIPSt10unique_ptrIN12_GLOBAL__N_17PGOEdgeESt14default_deleteIS3_EESt6vectorIS6_SaIS6_EEEC2ERKS7_(ptr noundef nonnull align 8 dereferenceable(8) %0, ptr noundef nonnull align 8 dereferenceable(8) %1) unnamed_addr #1 align 2 {
  %3 = alloca ptr, align 8
  %4 = alloca ptr, align 8
  store ptr %0, ptr %3, align 8
  store ptr %1, ptr %4, align 8
  %5 = load ptr, ptr %3, align 8
  %6 = getelementptr inbounds nuw %"class.__gnu_cxx::__normal_iterator.350", ptr %5, i32 0, i32 0
  %7 = load ptr, ptr %4, align 8
  %8 = load ptr, ptr %7, align 8
  store ptr %8, ptr %6, align 8
  ret void
}

; Function Attrs: mustprogress nounwind uwtable
define internal noundef nonnull align 8 dereferenceable(8) ptr @_ZNK9__gnu_cxx17__normal_iteratorIPSt10unique_ptrIN12_GLOBAL__N_17PGOEdgeESt14default_deleteIS3_EESt6vectorIS6_SaIS6_EEE4baseEv(ptr noundef nonnull align 8 dereferenceable(8) %0) #1 align 2 {
  %2 = alloca ptr, align 8
  store ptr %0, ptr %2, align 8
  %3 = load ptr, ptr %2, align 8
  %4 = getelementptr inbounds nuw %"class.__gnu_cxx::__normal_iterator.350", ptr %3, i32 0, i32 0
  ret ptr %4
}

; Function Attrs: mustprogress nounwind uwtable
define internal ptr @_ZNK9__gnu_cxx17__normal_iteratorIPSt10unique_ptrIN12_GLOBAL__N_17PGOEdgeESt14default_deleteIS3_EESt6vectorIS6_SaIS6_EEEplEl(ptr noundef nonnull align 8 dereferenceable(8) %0, i64 noundef %1) #1 align 2 {
  %3 = alloca %"class.__gnu_cxx::__normal_iterator.350", align 8
  %4 = alloca ptr, align 8
  %5 = alloca i64, align 8
  %6 = alloca ptr, align 8
  store ptr %0, ptr %4, align 8
  store i64 %1, ptr %5, align 8
  %7 = load ptr, ptr %4, align 8
  %8 = getelementptr inbounds nuw %"class.__gnu_cxx::__normal_iterator.350", ptr %7, i32 0, i32 0
  %9 = load ptr, ptr %8, align 8
  %10 = load i64, ptr %5, align 8
  %11 = getelementptr inbounds %"class.std::unique_ptr.351", ptr %9, i64 %10
  store ptr %11, ptr %6, align 8
  call void @_ZN9__gnu_cxx17__normal_iteratorIPSt10unique_ptrIN12_GLOBAL__N_17PGOEdgeESt14default_deleteIS3_EESt6vectorIS6_SaIS6_EEEC2ERKS7_(ptr noundef nonnull align 8 dereferenceable(8) %3, ptr noundef nonnull align 8 dereferenceable(8) %6) #2
  %12 = getelementptr inbounds nuw %"class.__gnu_cxx::__normal_iterator.350", ptr %3, i32 0, i32 0
  %13 = load ptr, ptr %12, align 8
  ret ptr %13
}

; Function Attrs: mustprogress nounwind uwtable
define internal noundef i64 @_ZN9__gnu_cxxmiIPSt10unique_ptrIN12_GLOBAL__N_17PGOEdgeESt14default_deleteIS3_EESt6vectorIS6_SaIS6_EEEENS_17__normal_iteratorIT_T0_E15difference_typeERKSE_SH_(ptr noundef nonnull align 8 dereferenceable(8) %0, ptr noundef nonnull align 8 dereferenceable(8) %1) #1 {
  %3 = alloca ptr, align 8
  %4 = alloca ptr, align 8
  store ptr %0, ptr %3, align 8
  store ptr %1, ptr %4, align 8
  %5 = load ptr, ptr %3, align 8
  %6 = call noundef nonnull align 8 dereferenceable(8) ptr @_ZNK9__gnu_cxx17__normal_iteratorIPSt10unique_ptrIN12_GLOBAL__N_17PGOEdgeESt14default_deleteIS3_EESt6vectorIS6_SaIS6_EEE4baseEv(ptr noundef nonnull align 8 dereferenceable(8) %5) #2
  %7 = load ptr, ptr %6, align 8
  %8 = load ptr, ptr %4, align 8
  %9 = call noundef nonnull align 8 dereferenceable(8) ptr @_ZNK9__gnu_cxx17__normal_iteratorIPSt10unique_ptrIN12_GLOBAL__N_17PGOEdgeESt14default_deleteIS3_EESt6vectorIS6_SaIS6_EEE4baseEv(ptr noundef nonnull align 8 dereferenceable(8) %8) #2
  %10 = load ptr, ptr %9, align 8
  %11 = ptrtoint ptr %7 to i64
  %12 = ptrtoint ptr %10 to i64
  %13 = sub i64 %11, %12
  %14 = sdiv exact i64 %13, 8
  ret i64 %14
}

; Function Attrs: mustprogress nounwind uwtable
define internal void @_ZSt22__stable_sort_adaptiveIN9__gnu_cxx17__normal_iteratorIPSt10unique_ptrIN12_GLOBAL__N_17PGOEdgeESt14default_deleteIS4_EESt6vectorIS7_SaIS7_EEEES8_lNS0_5__ops15_Iter_comp_iterIZN4llvm6CFGMSTIS4_NS3_9PGOBBInfoEE17sortEdgesByWeightEvEUlRKS7_SK_E_EEEvT_SN_T0_T1_T2_(ptr %0, ptr %1, ptr noundef %2, i64 noundef %3) #1 {
  %5 = alloca %"class.__gnu_cxx::__normal_iterator.350", align 8
  %6 = alloca %"class.__gnu_cxx::__normal_iterator.350", align 8
  %7 = alloca %"struct.__gnu_cxx::__ops::_Iter_comp_iter", align 1
  %8 = alloca ptr, align 8
  %9 = alloca i64, align 8
  %10 = alloca i64, align 8
  %11 = alloca %"class.__gnu_cxx::__normal_iterator.350", align 8
  %12 = alloca %"class.__gnu_cxx::__normal_iterator.350", align 8
  %13 = alloca %"class.__gnu_cxx::__normal_iterator.350", align 8
  %14 = alloca %"struct.__gnu_cxx::__ops::_Iter_comp_iter", align 1
  %15 = alloca %"class.__gnu_cxx::__normal_iterator.350", align 8
  %16 = alloca %"class.__gnu_cxx::__normal_iterator.350", align 8
  %17 = alloca %"struct.__gnu_cxx::__ops::_Iter_comp_iter", align 1
  %18 = alloca %"class.__gnu_cxx::__normal_iterator.350", align 8
  %19 = alloca %"class.__gnu_cxx::__normal_iterator.350", align 8
  %20 = alloca %"struct.__gnu_cxx::__ops::_Iter_comp_iter", align 1
  %21 = alloca %"class.__gnu_cxx::__normal_iterator.350", align 8
  %22 = alloca %"class.__gnu_cxx::__normal_iterator.350", align 8
  %23 = alloca %"struct.__gnu_cxx::__ops::_Iter_comp_iter", align 1
  %24 = alloca %"class.__gnu_cxx::__normal_iterator.350", align 8
  %25 = alloca %"class.__gnu_cxx::__normal_iterator.350", align 8
  %26 = alloca %"class.__gnu_cxx::__normal_iterator.350", align 8
  %27 = alloca %"struct.__gnu_cxx::__ops::_Iter_comp_iter", align 1
  %28 = getelementptr inbounds nuw %"class.__gnu_cxx::__normal_iterator.350", ptr %5, i32 0, i32 0
  store ptr %0, ptr %28, align 8
  %29 = getelementptr inbounds nuw %"class.__gnu_cxx::__normal_iterator.350", ptr %6, i32 0, i32 0
  store ptr %1, ptr %29, align 8
  store ptr %2, ptr %8, align 8
  store i64 %3, ptr %9, align 8
  %30 = call noundef i64 @_ZN9__gnu_cxxmiIPSt10unique_ptrIN12_GLOBAL__N_17PGOEdgeESt14default_deleteIS3_EESt6vectorIS6_SaIS6_EEEENS_17__normal_iteratorIT_T0_E15difference_typeERKSE_SH_(ptr noundef nonnull align 8 dereferenceable(8) %6, ptr noundef nonnull align 8 dereferenceable(8) %5) #2
  %31 = add nsw i64 %30, 1
  %32 = sdiv i64 %31, 2
  store i64 %32, ptr %10, align 8
  %33 = load i64, ptr %10, align 8
  %34 = call ptr @_ZNK9__gnu_cxx17__normal_iteratorIPSt10unique_ptrIN12_GLOBAL__N_17PGOEdgeESt14default_deleteIS3_EESt6vectorIS6_SaIS6_EEEplEl(ptr noundef nonnull align 8 dereferenceable(8) %5, i64 noundef %33) #2
  %35 = getelementptr inbounds nuw %"class.__gnu_cxx::__normal_iterator.350", ptr %11, i32 0, i32 0
  store ptr %34, ptr %35, align 8
  %36 = load i64, ptr %10, align 8
  %37 = load i64, ptr %9, align 8
  %38 = icmp sgt i64 %36, %37
  br i1 %38, label %39, label %52

39:                                               ; preds = %4
  call void @llvm.memcpy.p0.p0.i64(ptr align 8 %12, ptr align 8 %5, i64 8, i1 false)
  call void @llvm.memcpy.p0.p0.i64(ptr align 8 %13, ptr align 8 %11, i64 8, i1 false)
  %40 = load ptr, ptr %8, align 8
  %41 = load i64, ptr %9, align 8
  call void @llvm.memcpy.p0.p0.i64(ptr align 1 %14, ptr align 1 %7, i64 1, i1 false)
  %42 = getelementptr inbounds nuw %"class.__gnu_cxx::__normal_iterator.350", ptr %12, i32 0, i32 0
  %43 = load ptr, ptr %42, align 8
  %44 = getelementptr inbounds nuw %"class.__gnu_cxx::__normal_iterator.350", ptr %13, i32 0, i32 0
  %45 = load ptr, ptr %44, align 8
  call void @_ZSt22__stable_sort_adaptiveIN9__gnu_cxx17__normal_iteratorIPSt10unique_ptrIN12_GLOBAL__N_17PGOEdgeESt14default_deleteIS4_EESt6vectorIS7_SaIS7_EEEES8_lNS0_5__ops15_Iter_comp_iterIZN4llvm6CFGMSTIS4_NS3_9PGOBBInfoEE17sortEdgesByWeightEvEUlRKS7_SK_E_EEEvT_SN_T0_T1_T2_(ptr %43, ptr %45, ptr noundef %40, i64 noundef %41)
  call void @llvm.memcpy.p0.p0.i64(ptr align 8 %15, ptr align 8 %11, i64 8, i1 false)
  call void @llvm.memcpy.p0.p0.i64(ptr align 8 %16, ptr align 8 %6, i64 8, i1 false)
  %46 = load ptr, ptr %8, align 8
  %47 = load i64, ptr %9, align 8
  call void @llvm.memcpy.p0.p0.i64(ptr align 1 %17, ptr align 1 %7, i64 1, i1 false)
  %48 = getelementptr inbounds nuw %"class.__gnu_cxx::__normal_iterator.350", ptr %15, i32 0, i32 0
  %49 = load ptr, ptr %48, align 8
  %50 = getelementptr inbounds nuw %"class.__gnu_cxx::__normal_iterator.350", ptr %16, i32 0, i32 0
  %51 = load ptr, ptr %50, align 8
  call void @_ZSt22__stable_sort_adaptiveIN9__gnu_cxx17__normal_iteratorIPSt10unique_ptrIN12_GLOBAL__N_17PGOEdgeESt14default_deleteIS4_EESt6vectorIS7_SaIS7_EEEES8_lNS0_5__ops15_Iter_comp_iterIZN4llvm6CFGMSTIS4_NS3_9PGOBBInfoEE17sortEdgesByWeightEvEUlRKS7_SK_E_EEEvT_SN_T0_T1_T2_(ptr %49, ptr %51, ptr noundef %46, i64 noundef %47)
  br label %63

52:                                               ; preds = %4
  call void @llvm.memcpy.p0.p0.i64(ptr align 8 %18, ptr align 8 %5, i64 8, i1 false)
  call void @llvm.memcpy.p0.p0.i64(ptr align 8 %19, ptr align 8 %11, i64 8, i1 false)
  %53 = load ptr, ptr %8, align 8
  call void @llvm.memcpy.p0.p0.i64(ptr align 1 %20, ptr align 1 %7, i64 1, i1 false)
  %54 = getelementptr inbounds nuw %"class.__gnu_cxx::__normal_iterator.350", ptr %18, i32 0, i32 0
  %55 = load ptr, ptr %54, align 8
  %56 = getelementptr inbounds nuw %"class.__gnu_cxx::__normal_iterator.350", ptr %19, i32 0, i32 0
  %57 = load ptr, ptr %56, align 8
  call void @_ZSt24__merge_sort_with_bufferIN9__gnu_cxx17__normal_iteratorIPSt10unique_ptrIN12_GLOBAL__N_17PGOEdgeESt14default_deleteIS4_EESt6vectorIS7_SaIS7_EEEES8_NS0_5__ops15_Iter_comp_iterIZN4llvm6CFGMSTIS4_NS3_9PGOBBInfoEE17sortEdgesByWeightEvEUlRKS7_SK_E_EEEvT_SN_T0_T1_(ptr %55, ptr %57, ptr noundef %53)
  call void @llvm.memcpy.p0.p0.i64(ptr align 8 %21, ptr align 8 %11, i64 8, i1 false)
  call void @llvm.memcpy.p0.p0.i64(ptr align 8 %22, ptr align 8 %6, i64 8, i1 false)
  %58 = load ptr, ptr %8, align 8
  call void @llvm.memcpy.p0.p0.i64(ptr align 1 %23, ptr align 1 %7, i64 1, i1 false)
  %59 = getelementptr inbounds nuw %"class.__gnu_cxx::__normal_iterator.350", ptr %21, i32 0, i32 0
  %60 = load ptr, ptr %59, align 8
  %61 = getelementptr inbounds nuw %"class.__gnu_cxx::__normal_iterator.350", ptr %22, i32 0, i32 0
  %62 = load ptr, ptr %61, align 8
  call void @_ZSt24__merge_sort_with_bufferIN9__gnu_cxx17__normal_iteratorIPSt10unique_ptrIN12_GLOBAL__N_17PGOEdgeESt14default_deleteIS4_EESt6vectorIS7_SaIS7_EEEES8_NS0_5__ops15_Iter_comp_iterIZN4llvm6CFGMSTIS4_NS3_9PGOBBInfoEE17sortEdgesByWeightEvEUlRKS7_SK_E_EEEvT_SN_T0_T1_(ptr %60, ptr %62, ptr noundef %58)
  br label %63

63:                                               ; preds = %52, %39
  call void @llvm.memcpy.p0.p0.i64(ptr align 8 %24, ptr align 8 %5, i64 8, i1 false)
  call void @llvm.memcpy.p0.p0.i64(ptr align 8 %25, ptr align 8 %11, i64 8, i1 false)
  call void @llvm.memcpy.p0.p0.i64(ptr align 8 %26, ptr align 8 %6, i64 8, i1 false)
  %64 = call noundef i64 @_ZN9__gnu_cxxmiIPSt10unique_ptrIN12_GLOBAL__N_17PGOEdgeESt14default_deleteIS3_EESt6vectorIS6_SaIS6_EEEENS_17__normal_iteratorIT_T0_E15difference_typeERKSE_SH_(ptr noundef nonnull align 8 dereferenceable(8) %11, ptr noundef nonnull align 8 dereferenceable(8) %5) #2
  %65 = call noundef i64 @_ZN9__gnu_cxxmiIPSt10unique_ptrIN12_GLOBAL__N_17PGOEdgeESt14default_deleteIS3_EESt6vectorIS6_SaIS6_EEEENS_17__normal_iteratorIT_T0_E15difference_typeERKSE_SH_(ptr noundef nonnull align 8 dereferenceable(8) %6, ptr noundef nonnull align 8 dereferenceable(8) %11) #2
  %66 = load ptr, ptr %8, align 8
  %67 = load i64, ptr %9, align 8
  call void @llvm.memcpy.p0.p0.i64(ptr align 1 %27, ptr align 1 %7, i64 1, i1 false)
  %68 = getelementptr inbounds nuw %"class.__gnu_cxx::__normal_iterator.350", ptr %24, i32 0, i32 0
  %69 = load ptr, ptr %68, align 8
  %70 = getelementptr inbounds nuw %"class.__gnu_cxx::__normal_iterator.350", ptr %25, i32 0, i32 0
  %71 = load ptr, ptr %70, align 8
  %72 = getelementptr inbounds nuw %"class.__gnu_cxx::__normal_iterator.350", ptr %26, i32 0, i32 0
  %73 = load ptr, ptr %72, align 8
  call void @_ZSt16__merge_adaptiveIN9__gnu_cxx17__normal_iteratorIPSt10unique_ptrIN12_GLOBAL__N_17PGOEdgeESt14default_deleteIS4_EESt6vectorIS7_SaIS7_EEEElS8_NS0_5__ops15_Iter_comp_iterIZN4llvm6CFGMSTIS4_NS3_9PGOBBInfoEE17sortEdgesByWeightEvEUlRKS7_SK_E_EEEvT_SN_SN_T0_SO_T1_SO_T2_(ptr %69, ptr %71, ptr %73, i64 noundef %64, i64 noundef %65, ptr noundef %66, i64 noundef %67)
  ret void
}